; Function Attrs: mustprogress uwtable
define hidden noalias noundef ptr @_ZN7datalog20karr_relation_plugin24mk_filter_interpreted_fnERKNS_13relation_baseEP3app(ptr noundef nonnull readnone align 8 dereferenceable(184) %this, ptr noundef nonnull readonly align 8 dereferenceable(28) %t, ptr noundef %condition) unnamed_addr #3 align 2 personality ptr @__gxx_personality_v0 {
entry:
  %m_plugin.i.i = getelementptr inbounds i8, ptr %t, i64 8
  %0 = load ptr, ptr %m_plugin.i.i, align 8
  %cmp.i = icmp eq ptr %0, %this
  br i1 %cmp.i, label %if.then, label %return

if.then:                                          ; preds = %entry
  %call2 = tail call noalias noundef ptr @_ZN6memory8allocateEm(i64 noundef 24)
  %1 = tail call ptr @__dynamic_cast(ptr nonnull %t, ptr nonnull @_ZTIN7datalog13relation_baseE, ptr nonnull @_ZTIN7datalog13karr_relationE, i64 0) #16
  %2 = icmp eq ptr %1, null
  br i1 %2, label %dynamic_cast.bad_cast.i, label %_ZN7datalog20karr_relation_plugin3getERKNS_13relation_baseE.exit

dynamic_cast.bad_cast.i:                          ; preds = %if.then
  tail call void @__cxa_bad_cast() #17
  unreachable

_ZN7datalog20karr_relation_plugin3getERKNS_13relation_baseE.exit: ; preds = %if.then
  store ptr getelementptr inbounds ({ [7 x ptr] }, ptr @_ZTVN7datalog20karr_relation_plugin21filter_interpreted_fnE, i64 0, i32 0, i64 2), ptr %call2, align 8
  %m_plugin.i.i2 = getelementptr inbounds i8, ptr %1, i64 32
  %3 = load ptr, ptr %m_plugin.i.i2, align 8
  %m_manager.i.i = getelementptr inbounds i8, ptr %3, i64 24
  %4 = load ptr, ptr %m_manager.i.i, align 8
  %call.i1.i = tail call noundef nonnull align 8 dereferenceable(976) ptr @_ZN7datalog32get_ast_manager_from_rel_managerERKNS_16relation_managerE(ptr noundef nonnull align 8 dereferenceable(200) %4)
  %m_cond.i = getelementptr inbounds i8, ptr %call2, i64 8
  store ptr %condition, ptr %m_cond.i, align 8
  %m_manager.i2.i = getelementptr inbounds i8, ptr %call2, i64 16
  store ptr %call.i1.i, ptr %m_manager.i2.i, align 8
  %tobool.not.i.i.i = icmp eq ptr %condition, null
  br i1 %tobool.not.i.i.i, label %return, label %_ZN11ast_manager7inc_refEP3ast.exit.i.i.i

_ZN11ast_manager7inc_refEP3ast.exit.i.i.i:        ; preds = %_ZN7datalog20karr_relation_plugin3getERKNS_13relation_baseE.exit
  %m_ref_count.i.i.i.i.i = getelementptr inbounds i8, ptr %condition, i64 8
  %5 = load i32, ptr %m_ref_count.i.i.i.i.i, align 4
  %inc.i.i.i.i.i = add i32 %5, 1
  store i32 %inc.i.i.i.i.i, ptr %m_ref_count.i.i.i.i.i, align 4
  br label %return

return:                                           ; preds = %_ZN11ast_manager7inc_refEP3ast.exit.i.i.i, %_ZN7datalog20karr_relation_plugin3getERKNS_13relation_baseE.exit, %entry
  %retval.0 = phi ptr [ null, %entry ], [ %call2, %_ZN7datalog20karr_relation_plugin3getERKNS_13relation_baseE.exit ], [ %call2, %_ZN11ast_manager7inc_refEP3ast.exit.i.i.i ]
  ret ptr %retval.0
}